target datalayout = "e-m:e-p270:32:32-p271:32:32-p272:64:64-i64:64-i128:128-f80:128-n8:16:32:64-S128"
target triple = "x86_64-pc-linux-gnu"

%"struct.std::atomic" = type { %"struct.std::__atomic_base" }
%"struct.std::__atomic_base" = type { ptr }
%"struct.std::atomic.1" = type { %"struct.std::__atomic_base.0" }
%"struct.std::__atomic_base.0" = type { ptr }
%"union.absl::lts_20240722::internal_any_invocable::TypeErasedState" = type { %struct.anon }
%struct.anon = type { ptr, i64 }
%"struct.grpc_core::CoreConfiguration::RegisteredBuilder" = type { %"class.absl::lts_20240722::AnyInvocable.53", ptr, [8 x i8] }
%"class.absl::lts_20240722::AnyInvocable.53" = type { %"class.absl::lts_20240722::internal_any_invocable::Impl.54" }
%"class.absl::lts_20240722::internal_any_invocable::Impl.54" = type { %"class.absl::lts_20240722::internal_any_invocable::CoreImpl.55" }
%"class.absl::lts_20240722::internal_any_invocable::CoreImpl.55" = type { %"union.absl::lts_20240722::internal_any_invocable::TypeErasedState", ptr, ptr }

@_ZN9grpc_core17CoreConfiguration7config_E = global %"struct.std::atomic" zeroinitializer, align 8
@_ZN9grpc_core17CoreConfiguration9builders_E = global %"struct.std::atomic.1" zeroinitializer, align 8

; Function Attrs: mustprogress nounwind uwtable
define linkonce_odr void @_ZN4absl12lts_2024072222internal_any_invocable8CoreImplILb0EvJPN9grpc_core17CoreConfiguration7BuilderEEED2Ev(ptr noundef nonnull align 16 dereferenceable(32) %0) unnamed_addr #8 comdat align 2 {
  %2 = alloca ptr, align 8
  store ptr %0, ptr %2, align 8, !tbaa !495
  %3 = load ptr, ptr %2, align 8
  %4 = getelementptr inbounds nuw %"class.absl::lts_20240722::internal_any_invocable::CoreImpl.55", ptr %3, i32 0, i32 1
  %5 = load ptr, ptr %4, align 16, !tbaa !497
  %6 = getelementptr inbounds nuw %"class.absl::lts_20240722::internal_any_invocable::CoreImpl.55", ptr %3, i32 0, i32 0
  %7 = getelementptr inbounds nuw %"class.absl::lts_20240722::internal_any_invocable::CoreImpl.55", ptr %3, i32 0, i32 0
  call void %5(i1 noundef zeroext true, ptr noundef %6, ptr noundef %7) #3
  ret void
}

; Function Attrs: alwaysinline mustprogress nounwind uwtable
define linkonce_odr noundef ptr @_ZNSt13__atomic_baseIPN9grpc_core17CoreConfiguration17RegisteredBuilderEE8exchangeES3_St12memory_order(ptr noundef nonnull align 8 dereferenceable(8) %0, ptr noundef %1, i32 noundef %2) #18 comdat align 2 {
  %4 = alloca ptr, align 8
  %5 = alloca ptr, align 8
  %6 = alloca i32, align 4
  %7 = alloca ptr, align 8
  %8 = alloca ptr, align 8
  store ptr %0, ptr %4, align 8, !tbaa !578
  store ptr %1, ptr %5, align 8, !tbaa !44
  store i32 %2, ptr %6, align 4, !tbaa !55
  %9 = load ptr, ptr %4, align 8
  %10 = getelementptr inbounds nuw %"struct.std::__atomic_base.0", ptr %9, i32 0, i32 0
  %11 = load i32, ptr %6, align 4, !tbaa !55
  %12 = load ptr, ptr %5, align 8, !tbaa !44
  store ptr %12, ptr %7, align 8, !tbaa !44
  switch i32 %11, label %13 [
    i32 1, label %16
    i32 2, label %16
    i32 3, label %19
    i32 4, label %22
    i32 5, label %25
  ]

13:                                               ; preds = %3
  %14 = load i64, ptr %7, align 8
  %15 = atomicrmw xchg ptr %10, i64 %14 monotonic, align 8
  store i64 %15, ptr %8, align 8
  br label %28

16:                                               ; preds = %3, %3
  %17 = load i64, ptr %7, align 8
  %18 = atomicrmw xchg ptr %10, i64 %17 acquire, align 8
  store i64 %18, ptr %8, align 8
  br label %28

19:                                               ; preds = %3
  %20 = load i64, ptr %7, align 8
  %21 = atomicrmw xchg ptr %10, i64 %20 release, align 8
  store i64 %21, ptr %8, align 8
  br label %28

22:                                               ; preds = %3
  %23 = load i64, ptr %7, align 8
  %24 = atomicrmw xchg ptr %10, i64 %23 acq_rel, align 8
  store i64 %24, ptr %8, align 8
  br label %28

25:                                               ; preds = %3
  %26 = load i64, ptr %7, align 8
  %27 = atomicrmw xchg ptr %10, i64 %26 seq_cst, align 8
  store i64 %27, ptr %8, align 8
  br label %28

28:                                               ; preds = %25, %22, %19, %16, %13
  %29 = load ptr, ptr %8, align 8, !tbaa !44
  ret ptr %29
}

; Function Attrs: alwaysinline mustprogress nounwind uwtable
define linkonce_odr noundef ptr @_ZNSt13__atomic_baseIPN9grpc_core17CoreConfigurationEE8exchangeES2_St12memory_order(ptr noundef nonnull align 8 dereferenceable(8) %0, ptr noundef %1, i32 noundef %2) #18 comdat align 2 {
  %4 = alloca ptr, align 8
  %5 = alloca ptr, align 8
  %6 = alloca i32, align 4
  %7 = alloca ptr, align 8
  %8 = alloca ptr, align 8
  store ptr %0, ptr %4, align 8, !tbaa !576
  store ptr %1, ptr %5, align 8, !tbaa !24
  store i32 %2, ptr %6, align 4, !tbaa !55
  %9 = load ptr, ptr %4, align 8
  %10 = getelementptr inbounds nuw %"struct.std::__atomic_base", ptr %9, i32 0, i32 0
  %11 = load i32, ptr %6, align 4, !tbaa !55
  %12 = load ptr, ptr %5, align 8, !tbaa !24
  store ptr %12, ptr %7, align 8, !tbaa !24
  switch i32 %11, label %13 [
    i32 1, label %16
    i32 2, label %16
    i32 3, label %19
    i32 4, label %22
    i32 5, label %25
  ]

13:                                               ; preds = %3
  %14 = load i64, ptr %7, align 8
  %15 = atomicrmw xchg ptr %10, i64 %14 monotonic, align 8
  store i64 %15, ptr %8, align 8
  br label %28

16:                                               ; preds = %3, %3
  %17 = load i64, ptr %7, align 8
  %18 = atomicrmw xchg ptr %10, i64 %17 acquire, align 8
  store i64 %18, ptr %8, align 8
  br label %28

19:                                               ; preds = %3
  %20 = load i64, ptr %7, align 8
  %21 = atomicrmw xchg ptr %10, i64 %20 release, align 8
  store i64 %21, ptr %8, align 8
  br label %28

22:                                               ; preds = %3
  %23 = load i64, ptr %7, align 8
  %24 = atomicrmw xchg ptr %10, i64 %23 acq_rel, align 8
  store i64 %24, ptr %8, align 8
  br label %28

25:                                               ; preds = %3
  %26 = load i64, ptr %7, align 8
  %27 = atomicrmw xchg ptr %10, i64 %26 seq_cst, align 8
  store i64 %27, ptr %8, align 8
  br label %28

28:                                               ; preds = %25, %22, %19, %16, %13
  %29 = load ptr, ptr %8, align 8, !tbaa !24
  ret ptr %29
}

; Function Attrs: inlinehint mustprogress nounwind uwtable
define linkonce_odr void @_ZN9grpc_core17CoreConfiguration17RegisteredBuilderD2Ev(ptr noundef nonnull align 16 dereferenceable(40) %0) unnamed_addr #5 comdat align 2 {
  %2 = alloca ptr, align 8
  store ptr %0, ptr %2, align 8, !tbaa !44
  %3 = load ptr, ptr %2, align 8
  %4 = getelementptr inbounds nuw %"struct.grpc_core::CoreConfiguration::RegisteredBuilder", ptr %3, i32 0, i32 0
  call void @_ZN4absl12lts_2024072222internal_any_invocable8CoreImplILb0EvJPN9grpc_core17CoreConfiguration7BuilderEEED2Ev(ptr noundef nonnull align 16 dereferenceable(32) %4) #3
  ret void
}

; Function Attrs: mustprogress nounwind uwtable
define linkonce_odr noundef ptr @_ZNSt6atomicIPN9grpc_core17CoreConfiguration17RegisteredBuilderEE8exchangeES3_St12memory_order(ptr noundef nonnull align 8 dereferenceable(8) %0, ptr noundef %1, i32 noundef %2) #8 comdat align 2 {
  %4 = alloca ptr, align 8
  %5 = alloca ptr, align 8
  %6 = alloca i32, align 4
  store ptr %0, ptr %4, align 8, !tbaa !69
  store ptr %1, ptr %5, align 8, !tbaa !44
  store i32 %2, ptr %6, align 4, !tbaa !55
  %7 = load ptr, ptr %4, align 8
  %8 = getelementptr inbounds nuw %"struct.std::atomic.1", ptr %7, i32 0, i32 0
  %9 = load ptr, ptr %5, align 8, !tbaa !44
  %10 = load i32, ptr %6, align 4, !tbaa !55
  %11 = call noundef ptr @_ZNSt13__atomic_baseIPN9grpc_core17CoreConfiguration17RegisteredBuilderEE8exchangeES3_St12memory_order(ptr noundef nonnull align 8 dereferenceable(8) %8, ptr noundef %9, i32 noundef %10) #3
  ret ptr %11
}

; Function Attrs: mustprogress nounwind uwtable
define linkonce_odr noundef ptr @_ZNSt6atomicIPN9grpc_core17CoreConfigurationEE8exchangeES2_St12memory_order(ptr noundef nonnull align 8 dereferenceable(8) %0, ptr noundef %1, i32 noundef %2) #8 comdat align 2 {
  %4 = alloca ptr, align 8
  %5 = alloca ptr, align 8
  %6 = alloca i32, align 4
  store ptr %0, ptr %4, align 8, !tbaa !53
  store ptr %1, ptr %5, align 8, !tbaa !24
  store i32 %2, ptr %6, align 4, !tbaa !55
  %7 = load ptr, ptr %4, align 8
  %8 = getelementptr inbounds nuw %"struct.std::atomic", ptr %7, i32 0, i32 0
  %9 = load ptr, ptr %5, align 8, !tbaa !24
  %10 = load i32, ptr %6, align 4, !tbaa !55
  %11 = call noundef ptr @_ZNSt13__atomic_baseIPN9grpc_core17CoreConfigurationEE8exchangeES2_St12memory_order(ptr noundef nonnull align 8 dereferenceable(8) %8, ptr noundef %9, i32 noundef %10) #3
  ret ptr %11
}

; Function Attrs: mustprogress nounwind uwtable
define void @_ZN9grpc_core17CoreConfiguration5ResetEv() #8 align 2 {
  %1 = alloca ptr, align 8
  %2 = alloca ptr, align 8
  %3 = call noundef ptr @_ZNSt6atomicIPN9grpc_core17CoreConfigurationEE8exchangeES2_St12memory_order(ptr noundef nonnull align 8 dereferenceable(8) @_ZN9grpc_core17CoreConfiguration7config_E, ptr noundef null, i32 noundef 2) #3
  %4 = icmp eq ptr %3, null
  br i1 %4, label %6, label %5

5:                                                ; preds = %0
  call void @_ZN9grpc_core17CoreConfigurationD2Ev(ptr noundef nonnull align 8 dereferenceable(776) %3) #3
  call void @_ZdlPvm(ptr noundef %3, i64 noundef 776) #21
  br label %6

6:                                                ; preds = %5, %0
  call void @llvm.lifetime.start.p0(i64 8, ptr %1) #3
  %7 = call noundef ptr @_ZNSt6atomicIPN9grpc_core17CoreConfiguration17RegisteredBuilderEE8exchangeES3_St12memory_order(ptr noundef nonnull align 8 dereferenceable(8) @_ZN9grpc_core17CoreConfiguration9builders_E, ptr noundef null, i32 noundef 2) #3
  store ptr %7, ptr %1, align 8, !tbaa !44
  br label %8

8:                                                ; preds = %18, %6
  %9 = load ptr, ptr %1, align 8, !tbaa !44
  %10 = icmp ne ptr %9, null
  br i1 %10, label %11, label %20

11:                                               ; preds = %8
  call void @llvm.lifetime.start.p0(i64 8, ptr %2) #3
  %12 = load ptr, ptr %1, align 8, !tbaa !44
  %13 = getelementptr inbounds nuw %"struct.grpc_core::CoreConfiguration::RegisteredBuilder", ptr %12, i32 0, i32 1
  %14 = load ptr, ptr %13, align 16, !tbaa !46
  store ptr %14, ptr %2, align 8, !tbaa !44
  %15 = load ptr, ptr %1, align 8, !tbaa !44
  %16 = icmp eq ptr %15, null
  br i1 %16, label %18, label %17

17:                                               ; preds = %11
  call void @_ZN9grpc_core17CoreConfiguration17RegisteredBuilderD2Ev(ptr noundef nonnull align 16 dereferenceable(40) %15) #3
  call void @_ZdlPvm(ptr noundef %15, i64 noundef 48) #21
  br label %18

18:                                               ; preds = %17, %11
  %19 = load ptr, ptr %2, align 8, !tbaa !44
  store ptr %19, ptr %1, align 8, !tbaa !44
  call void @llvm.lifetime.end.p0(i64 8, ptr %2) #3
  br label %8, !llvm.loop !90

20:                                               ; preds = %8
  call void @llvm.lifetime.end.p0(i64 8, ptr %1) #3
  ret void
}