; Function Attrs: mustprogress nounwind uwtable
define void @_ZN9grpc_core17CoreConfiguration5ResetEv() local_unnamed_addr #7 align 2 {
  %1 = atomicrmw xchg ptr @_ZN9grpc_core17CoreConfiguration7config_E, i64 0 acquire, align 8
  %2 = icmp eq i64 %1, 0
  br i1 %2, label %4, label %3

3:                                                ; preds = %0
  %.0.i.i = inttoptr i64 %1 to ptr
  tail call void @_ZN9grpc_core17CoreConfigurationD2Ev(ptr noundef nonnull align 8 dereferenceable(776) %.0.i.i) #22
  tail call void @_ZdlPvm(ptr noundef nonnull %.0.i.i, i64 noundef 776) #23
  br label %4

4:                                                ; preds = %3, %0
  %5 = atomicrmw xchg ptr @_ZN9grpc_core17CoreConfiguration9builders_E, i64 0 acquire, align 8
  %.not6 = icmp eq i64 %5, 0
  br i1 %.not6, label %._crit_edge, label %.lr.ph.preheader

.lr.ph.preheader:                                 ; preds = %4
  %.0.i.i5 = inttoptr i64 %5 to ptr
  br label %.lr.ph

.lr.ph:                                           ; preds = %.lr.ph.preheader, %.lr.ph
  %.07 = phi ptr [ %7, %.lr.ph ], [ %.0.i.i5, %.lr.ph.preheader ]
  %6 = getelementptr inbounds nuw i8, ptr %.07, i64 32
  %7 = load ptr, ptr %6, align 16, !tbaa !88
  %8 = getelementptr inbounds nuw i8, ptr %.07, i64 16
  %9 = load ptr, ptr %8, align 16, !tbaa !85
  tail call void %9(i1 noundef zeroext true, ptr noundef nonnull align 16 dereferenceable(40) %.07, ptr noundef nonnull align 16 dereferenceable(40) %.07) #22
  tail call void @_ZdlPvm(ptr noundef nonnull %.07, i64 noundef 48) #23
  %.not = icmp eq ptr %7, null
  br i1 %.not, label %._crit_edge, label %.lr.ph, !llvm.loop !98

._crit_edge:                                      ; preds = %.lr.ph, %4
  ret void
}